target datalayout = "e-m:e-p270:32:32-p271:32:32-p272:64:64-i64:64-i128:128-f80:128-n8:16:32:64-S128"
target triple = "x86_64-unknown-linux-gnu"

%"class.pbrt::Point2" = type { %"class.pbrt::Tuple2" }
%"class.pbrt::Tuple2" = type { i32, i32 }
%"class.pbrt::Point2.100" = type { %"class.pbrt::Tuple2.101" }
%"class.pbrt::Tuple2.101" = type { float, float }

@_ZZN4pbrt5funcsL19rotatedCheckerboardENS_6Point2IfEEE2sa = internal global double 0.000000e+00, align 8
@_ZGVZN4pbrt5funcsL19rotatedCheckerboardENS_6Point2IfEEE2sa = internal global i64 0, align 8
@_ZZN4pbrt5funcsL19rotatedCheckerboardENS_6Point2IfEEE2ca = internal global double 0.000000e+00, align 8
@_ZGVZN4pbrt5funcsL19rotatedCheckerboardENS_6Point2IfEEE2ca = internal global i64 0, align 8

; Function Attrs: mustprogress nounwind uwtable
define linkonce_odr dso_local void @_ZN4pbrt6Tuple2INS_6Point2EiEC2Eii(ptr noundef nonnull align 4 dereferenceable(8) %this, i32 noundef %x, i32 noundef %y) unnamed_addr #2 comdat align 2 {
entry:
  %this.addr = alloca ptr, align 8
  %x.addr = alloca i32, align 4
  %y.addr = alloca i32, align 4
  store ptr %this, ptr %this.addr, align 8
  store i32 %x, ptr %x.addr, align 4
  store i32 %y, ptr %y.addr, align 4
  %this1 = load ptr, ptr %this.addr, align 8
  %x2 = getelementptr inbounds %"class.pbrt::Tuple2", ptr %this1, i32 0, i32 0
  %0 = load i32, ptr %x.addr, align 4
  store i32 %0, ptr %x2, align 4
  %y3 = getelementptr inbounds %"class.pbrt::Tuple2", ptr %this1, i32 0, i32 1
  %1 = load i32, ptr %y.addr, align 4
  store i32 %1, ptr %y3, align 4
  br label %do.body

do.body:                                          ; preds = %entry
  br label %do.end

do.end:                                           ; preds = %do.body
  ret void
}

; Function Attrs: mustprogress uwtable
define linkonce_odr dso_local void @_ZN4pbrt6Point2IiEC2IfEENS0_IT_EE(ptr noundef nonnull align 4 dereferenceable(8) %this, <2 x float> %v.coerce) unnamed_addr #8 comdat align 2 {
entry:
  %v = alloca %"class.pbrt::Point2.100", align 4
  %this.addr = alloca ptr, align 8
  %coerce.dive = getelementptr inbounds %"class.pbrt::Point2.100", ptr %v, i32 0, i32 0
  store <2 x float> %v.coerce, ptr %coerce.dive, align 4
  store ptr %this, ptr %this.addr, align 8
  %this1 = load ptr, ptr %this.addr, align 8
  %x = getelementptr inbounds %"class.pbrt::Tuple2.101", ptr %v, i32 0, i32 0
  %0 = load float, ptr %x, align 4
  %conv = fptosi float %0 to i32
  %y = getelementptr inbounds %"class.pbrt::Tuple2.101", ptr %v, i32 0, i32 1
  %1 = load float, ptr %y, align 4
  %conv2 = fptosi float %1 to i32
  call void @_ZN4pbrt6Tuple2INS_6Point2EiEC2Eii(ptr noundef nonnull align 4 dereferenceable(8) %this1, i32 noundef %conv, i32 noundef %conv2)
  ret void
}

; Function Attrs: mustprogress uwtable
define linkonce_odr dso_local <2 x float> @_ZNK4pbrt6Tuple2INS_6Point2EfEmlIiEENS1_IDTmltlfEtlT_EEEES4_(ptr noundef nonnull align 4 dereferenceable(8) %this, i32 noundef %s) #8 comdat align 2 {
entry:
  %retval = alloca %"class.pbrt::Point2.100", align 4
  %this.addr = alloca ptr, align 8
  %s.addr = alloca i32, align 4
  store ptr %this, ptr %this.addr, align 8
  store i32 %s, ptr %s.addr, align 4
  %this1 = load ptr, ptr %this.addr, align 8
  %0 = load i32, ptr %s.addr, align 4
  %conv = sitofp i32 %0 to float
  %x = getelementptr inbounds %"class.pbrt::Tuple2.101", ptr %this1, i32 0, i32 0
  %1 = load float, ptr %x, align 4
  %mul = fmul float %conv, %1
  %2 = load i32, ptr %s.addr, align 4
  %conv2 = sitofp i32 %2 to float
  %y = getelementptr inbounds %"class.pbrt::Tuple2.101", ptr %this1, i32 0, i32 1
  %3 = load float, ptr %y, align 4
  %mul3 = fmul float %conv2, %3
  call void @_ZN4pbrt6Point2IfEC2Eff(ptr noundef nonnull align 4 dereferenceable(8) %retval, float noundef %mul, float noundef %mul3)
  %coerce.dive = getelementptr inbounds %"class.pbrt::Point2.100", ptr %retval, i32 0, i32 0
  %4 = load <2 x float>, ptr %coerce.dive, align 4
  ret <2 x float> %4
}

; Function Attrs: mustprogress nounwind uwtable
define linkonce_odr dso_local void @_ZN4pbrt6Tuple2INS_6Point2EfEC2Eff(ptr noundef nonnull align 4 dereferenceable(8) %this, float noundef %x, float noundef %y) unnamed_addr #2 comdat align 2 {
entry:
  %this.addr = alloca ptr, align 8
  %x.addr = alloca float, align 4
  %y.addr = alloca float, align 4
  store ptr %this, ptr %this.addr, align 8
  store float %x, ptr %x.addr, align 4
  store float %y, ptr %y.addr, align 4
  %this1 = load ptr, ptr %this.addr, align 8
  %x2 = getelementptr inbounds %"class.pbrt::Tuple2.101", ptr %this1, i32 0, i32 0
  %0 = load float, ptr %x.addr, align 4
  store float %0, ptr %x2, align 4
  %y3 = getelementptr inbounds %"class.pbrt::Tuple2.101", ptr %this1, i32 0, i32 1
  %1 = load float, ptr %y.addr, align 4
  store float %1, ptr %y3, align 4
  br label %do.body

do.body:                                          ; preds = %entry
  br label %do.end

do.end:                                           ; preds = %do.body
  ret void
}

; Function Attrs: mustprogress uwtable
define internal noundef double @_ZN4pbrt5funcsL12checkerboardENS_6Point2IfEE(<2 x float> %p.coerce) #8 {
entry:
  %p = alloca %"class.pbrt::Point2.100", align 4
  %freq = alloca i32, align 4
  %pi = alloca %"class.pbrt::Point2", align 4
  %agg.tmp = alloca %"class.pbrt::Point2.100", align 4
  %coerce.dive = getelementptr inbounds %"class.pbrt::Point2.100", ptr %p, i32 0, i32 0
  store <2 x float> %p.coerce, ptr %coerce.dive, align 4
  store i32 10, ptr %freq, align 4
  %0 = load i32, ptr %freq, align 4
  %call = call <2 x float> @_ZNK4pbrt6Tuple2INS_6Point2EfEmlIiEENS1_IDTmltlfEtlT_EEEES4_(ptr noundef nonnull align 4 dereferenceable(8) %p, i32 noundef %0)
  %coerce.dive1 = getelementptr inbounds %"class.pbrt::Point2.100", ptr %agg.tmp, i32 0, i32 0
  store <2 x float> %call, ptr %coerce.dive1, align 4
  %coerce.dive2 = getelementptr inbounds %"class.pbrt::Point2.100", ptr %agg.tmp, i32 0, i32 0
  %1 = load <2 x float>, ptr %coerce.dive2, align 4
  call void @_ZN4pbrt6Point2IiEC2IfEENS0_IT_EE(ptr noundef nonnull align 4 dereferenceable(8) %pi, <2 x float> %1)
  %x = getelementptr inbounds %"class.pbrt::Tuple2", ptr %pi, i32 0, i32 0
  %2 = load i32, ptr %x, align 4
  %and = and i32 %2, 1
  %y = getelementptr inbounds %"class.pbrt::Tuple2", ptr %pi, i32 0, i32 1
  %3 = load i32, ptr %y, align 4
  %and3 = and i32 %3, 1
  %xor = xor i32 %and, %and3
  %tobool = icmp ne i32 %xor, 0
  %cond = select i1 %tobool, i32 2, i32 0
  %conv = sitofp i32 %cond to double
  ret double %conv
}

; Function Attrs: mustprogress uwtable
define linkonce_odr dso_local void @_ZN4pbrt6Point2IfEC2Eff(ptr noundef nonnull align 4 dereferenceable(8) %this, float noundef %x, float noundef %y) unnamed_addr #1 comdat align 2 {
entry:
  %this.addr = alloca ptr, align 8
  %x.addr = alloca float, align 4
  %y.addr = alloca float, align 4
  store ptr %this, ptr %this.addr, align 8
  store float %x, ptr %x.addr, align 4
  store float %y, ptr %y.addr, align 4
  %this1 = load ptr, ptr %this.addr, align 8
  %0 = load float, ptr %x.addr, align 4
  %1 = load float, ptr %y.addr, align 4
  call void @_ZN4pbrt6Tuple2INS_6Point2EfEC2Eff(ptr noundef nonnull align 4 dereferenceable(8) %this1, float noundef %0, float noundef %1)
  ret void
}

; Function Attrs: mustprogress nounwind uwtable
define linkonce_odr dso_local noundef float @_ZN4pbrt7RadiansEf(float noundef %deg) #2 comdat {
entry:
  %deg.addr = alloca float, align 4
  store float %deg, ptr %deg.addr, align 4
  %0 = load float, ptr %deg.addr, align 4
  %mul = fmul float 0x3F91DF46A0000000, %0
  ret float %mul
}

; Function Attrs: mustprogress uwtable
define internal noundef double @_ZN4pbrt5funcsL19rotatedCheckerboardENS_6Point2IfEE(<2 x float> %p.coerce) #8 {
entry:
  %p = alloca %"class.pbrt::Point2.100", align 4
  %angle = alloca double, align 8
  %nrm = alloca double, align 8
  %agg.tmp = alloca %"class.pbrt::Point2.100", align 4
  %coerce.dive = getelementptr inbounds %"class.pbrt::Point2.100", ptr %p, i32 0, i32 0
  store <2 x float> %p.coerce, ptr %coerce.dive, align 4
  %call = call noundef float @_ZN4pbrt7RadiansEf(float noundef 4.500000e+01)
  %conv = fpext float %call to double
  store double %conv, ptr %angle, align 8
  store double 0x3FF0004800000000, ptr %nrm, align 8
  %0 = load atomic i8, ptr @_ZGVZN4pbrt5funcsL19rotatedCheckerboardENS_6Point2IfEEE2sa acquire, align 8
  %guard.uninitialized = icmp eq i8 %0, 0
  br i1 %guard.uninitialized, label %init.check, label %init.end, !prof !34

init.check:                                       ; preds = %entry
  %1 = call i32 @__cxa_guard_acquire(ptr @_ZGVZN4pbrt5funcsL19rotatedCheckerboardENS_6Point2IfEEE2sa) #14
  %tobool = icmp ne i32 %1, 0
  br i1 %tobool, label %init, label %init.end

init:                                             ; preds = %init.check
  %2 = load double, ptr %angle, align 8
  %call1 = call double @sin(double noundef %2) #14
  store double %call1, ptr @_ZZN4pbrt5funcsL19rotatedCheckerboardENS_6Point2IfEEE2sa, align 8
  call void @__cxa_guard_release(ptr @_ZGVZN4pbrt5funcsL19rotatedCheckerboardENS_6Point2IfEEE2sa) #14
  br label %init.end

init.end:                                         ; preds = %init, %init.check, %entry
  %3 = load atomic i8, ptr @_ZGVZN4pbrt5funcsL19rotatedCheckerboardENS_6Point2IfEEE2ca acquire, align 8
  %guard.uninitialized2 = icmp eq i8 %3, 0
  br i1 %guard.uninitialized2, label %init.check3, label %init.end7, !prof !34

init.check3:                                      ; preds = %init.end
  %4 = call i32 @__cxa_guard_acquire(ptr @_ZGVZN4pbrt5funcsL19rotatedCheckerboardENS_6Point2IfEEE2ca) #14
  %tobool4 = icmp ne i32 %4, 0
  br i1 %tobool4, label %init5, label %init.end7

init5:                                            ; preds = %init.check3
  %5 = load double, ptr %angle, align 8
  %call6 = call double @cos(double noundef %5) #14
  store double %call6, ptr @_ZZN4pbrt5funcsL19rotatedCheckerboardENS_6Point2IfEEE2ca, align 8
  call void @__cxa_guard_release(ptr @_ZGVZN4pbrt5funcsL19rotatedCheckerboardENS_6Point2IfEEE2ca) #14
  br label %init.end7

init.end7:                                        ; preds = %init5, %init.check3, %init.end
  %x = getelementptr inbounds %"class.pbrt::Tuple2.101", ptr %p, i32 0, i32 0
  %6 = load float, ptr %x, align 4
  %conv8 = fpext float %6 to double
  %7 = load double, ptr @_ZZN4pbrt5funcsL19rotatedCheckerboardENS_6Point2IfEEE2ca, align 8
  %mul = fmul double %conv8, %7
  %add = fadd double 1.000000e+01, %mul
  %y = getelementptr inbounds %"class.pbrt::Tuple2.101", ptr %p, i32 0, i32 1
  %8 = load float, ptr %y, align 4
  %conv9 = fpext float %8 to double
  %9 = load double, ptr @_ZZN4pbrt5funcsL19rotatedCheckerboardENS_6Point2IfEEE2sa, align 8
  %mul10 = fmul double %conv9, %9
  %sub = fsub double %add, %mul10
  %conv11 = fptrunc double %sub to float
  %x12 = getelementptr inbounds %"class.pbrt::Tuple2.101", ptr %p, i32 0, i32 0
  %10 = load float, ptr %x12, align 4
  %conv13 = fpext float %10 to double
  %11 = load double, ptr @_ZZN4pbrt5funcsL19rotatedCheckerboardENS_6Point2IfEEE2sa, align 8
  %mul14 = fmul double %conv13, %11
  %add15 = fadd double 1.000000e+01, %mul14
  %y16 = getelementptr inbounds %"class.pbrt::Tuple2.101", ptr %p, i32 0, i32 1
  %12 = load float, ptr %y16, align 4
  %conv17 = fpext float %12 to double
  %13 = load double, ptr @_ZZN4pbrt5funcsL19rotatedCheckerboardENS_6Point2IfEEE2ca, align 8
  %mul18 = fmul double %conv17, %13
  %add19 = fadd double %add15, %mul18
  %conv20 = fptrunc double %add19 to float
  call void @_ZN4pbrt6Point2IfEC2Eff(ptr noundef nonnull align 4 dereferenceable(8) %agg.tmp, float noundef %conv11, float noundef %conv20)
  %coerce.dive21 = getelementptr inbounds %"class.pbrt::Point2.100", ptr %agg.tmp, i32 0, i32 0
  %14 = load <2 x float>, ptr %coerce.dive21, align 4
  %call22 = call noundef double @_ZN4pbrt5funcsL12checkerboardENS_6Point2IfEE(<2 x float> %14)
  %15 = load double, ptr %nrm, align 8
  %div = fdiv double %call22, %15
  ret double %div
}