; Function Attrs: mustprogress nofree nounwind uwtable
define internal noundef double @_ZN4pbrt5funcsL19rotatedCheckerboardENS_6Point2IfEE(<2 x float> %p.coerce) #17 {
entry:
  %0 = load atomic i8, ptr @_ZGVZN4pbrt5funcsL19rotatedCheckerboardENS_6Point2IfEEE2sa acquire, align 8
  %guard.uninitialized = icmp eq i8 %0, 0
  br i1 %guard.uninitialized, label %init.check, label %init.end, !prof !472

init.check:                                       ; preds = %entry
  %1 = tail call i32 @__cxa_guard_acquire(ptr nonnull @_ZGVZN4pbrt5funcsL19rotatedCheckerboardENS_6Point2IfEEE2sa) #31
  %tobool.not = icmp eq i32 %1, 0
  br i1 %tobool.not, label %init.end, label %init

init:                                             ; preds = %init.check
  store double 0x3FE6A09E6ECB41FE, ptr @_ZZN4pbrt5funcsL19rotatedCheckerboardENS_6Point2IfEEE2sa, align 8
  tail call void @__cxa_guard_release(ptr nonnull @_ZGVZN4pbrt5funcsL19rotatedCheckerboardENS_6Point2IfEEE2sa) #31
  br label %init.end

init.end:                                         ; preds = %init, %init.check, %entry
  %2 = load atomic i8, ptr @_ZGVZN4pbrt5funcsL19rotatedCheckerboardENS_6Point2IfEEE2ca acquire, align 8
  %guard.uninitialized2 = icmp eq i8 %2, 0
  br i1 %guard.uninitialized2, label %init.check3, label %init.end7, !prof !472

init.check3:                                      ; preds = %init.end
  %3 = tail call i32 @__cxa_guard_acquire(ptr nonnull @_ZGVZN4pbrt5funcsL19rotatedCheckerboardENS_6Point2IfEEE2ca) #31
  %tobool4.not = icmp eq i32 %3, 0
  br i1 %tobool4.not, label %init.end7, label %init5

init5:                                            ; preds = %init.check3
  store double 0x3FE6A09E5E333598, ptr @_ZZN4pbrt5funcsL19rotatedCheckerboardENS_6Point2IfEEE2ca, align 8
  tail call void @__cxa_guard_release(ptr nonnull @_ZGVZN4pbrt5funcsL19rotatedCheckerboardENS_6Point2IfEEE2ca) #31
  br label %init.end7

init.end7:                                        ; preds = %init5, %init.check3, %init.end
  %p.sroa.0.0.vec.extract = extractelement <2 x float> %p.coerce, i64 0
  %conv8 = fpext float %p.sroa.0.0.vec.extract to double
  %4 = load double, ptr @_ZZN4pbrt5funcsL19rotatedCheckerboardENS_6Point2IfEEE2ca, align 8
  %mul = fmul double %4, %conv8
  %add = fadd double %mul, 1.000000e+01
  %p.sroa.0.4.vec.extract = extractelement <2 x float> %p.coerce, i64 1
  %conv9 = fpext float %p.sroa.0.4.vec.extract to double
  %5 = load double, ptr @_ZZN4pbrt5funcsL19rotatedCheckerboardENS_6Point2IfEEE2sa, align 8
  %mul10 = fmul double %5, %conv9
  %sub = fsub double %add, %mul10
  %conv11 = fptrunc double %sub to float
  %mul14 = fmul double %5, %conv8
  %add15 = fadd double %mul14, 1.000000e+01
  %mul18 = fmul double %4, %conv9
  %add19 = fadd double %mul18, %add15
  %conv20 = fptrunc double %add19 to float
  %mul.i.i = fmul float %conv11, 1.000000e+01
  %mul3.i.i = fmul float %conv20, 1.000000e+01
  %conv.i.i = fptosi float %mul.i.i to i32
  %conv2.i.i = fptosi float %mul3.i.i to i32
  %and1.i = xor i32 %conv2.i.i, %conv.i.i
  %xor.i = shl i32 %and1.i, 1
  %cond.i = and i32 %xor.i, 2
  %conv.i = sitofp i32 %cond.i to double
  %div = fdiv double %conv.i, 0x3FF0004800000000
  ret double %div
}